; Function Attrs: mustprogress nounwind uwtable
define void @_ZN4LIEF3DEX5ClassD2Ev(ptr noundef nonnull align 8 dereferenceable(140) %0) unnamed_addr #6 align 2 personality ptr @__gxx_personality_v0 {
  store ptr getelementptr inbounds ({ [7 x ptr] }, ptr @_ZTVN4LIEF3DEX5ClassE, i64 0, i32 0, i64 2), ptr %0, align 8
  %2 = getelementptr inbounds i8, ptr %0, i64 104
  tail call void @_ZNSt7__cxx1112basic_stringIcSt11char_traitsIcESaIcEED1Ev(ptr noundef nonnull align 8 dereferenceable(32) %2) #17
  %3 = getelementptr inbounds i8, ptr %0, i64 80
  %4 = load ptr, ptr %3, align 8
  %.not.i.i.i = icmp eq ptr %4, null
  br i1 %.not.i.i.i, label %_ZNSt6vectorIPN4LIEF3DEX5FieldESaIS3_EED2Ev.exit, label %5

5:                                                ; preds = %1
  tail call void @_ZdlPv(ptr noundef nonnull %4) #20
  br label %_ZNSt6vectorIPN4LIEF3DEX5FieldESaIS3_EED2Ev.exit

_ZNSt6vectorIPN4LIEF3DEX5FieldESaIS3_EED2Ev.exit: ; preds = %1, %5
  %6 = getelementptr inbounds i8, ptr %0, i64 56
  %7 = load ptr, ptr %6, align 8
  %.not.i.i.i1 = icmp eq ptr %7, null
  br i1 %.not.i.i.i1, label %_ZNSt6vectorIPN4LIEF3DEX6MethodESaIS3_EED2Ev.exit, label %8

8:                                                ; preds = %_ZNSt6vectorIPN4LIEF3DEX5FieldESaIS3_EED2Ev.exit
  tail call void @_ZdlPv(ptr noundef nonnull %7) #20
  br label %_ZNSt6vectorIPN4LIEF3DEX6MethodESaIS3_EED2Ev.exit

_ZNSt6vectorIPN4LIEF3DEX6MethodESaIS3_EED2Ev.exit: ; preds = %_ZNSt6vectorIPN4LIEF3DEX5FieldESaIS3_EED2Ev.exit, %8
  %9 = getelementptr inbounds i8, ptr %0, i64 8
  tail call void @_ZNSt7__cxx1112basic_stringIcSt11char_traitsIcESaIcEED1Ev(ptr noundef nonnull align 8 dereferenceable(32) %9) #17
  tail call void @_ZN4LIEF6ObjectD2Ev(ptr noundef nonnull align 8 dereferenceable(8) %0) #17
  ret void
}